; Function Attrs: mustprogress uwtable
define void @_ZN5faiss17IndexIVFFlatDedupC2EPNS_5IndexEmmNS_10MetricTypeE(ptr noundef nonnull align 8 dereferenceable(328) %0, ptr noundef %1, i64 noundef %2, i64 noundef %3, i32 noundef %4) unnamed_addr #3 align 2 {
  %6 = shl i64 %2, 2
  tail call void @_ZN5faiss8IndexIVFC2EPNS_5IndexEmmmNS_10MetricTypeE(ptr noundef nonnull align 8 dereferenceable(265) %0, ptr noundef %1, i64 noundef %2, i64 noundef %3, i64 noundef %6, i32 noundef %4)
  %7 = getelementptr inbounds nuw i8, ptr %0, i64 40
  %8 = getelementptr inbounds nuw i8, ptr %0, i64 160
  store i64 %6, ptr %8, align 8, !tbaa !4
  %9 = getelementptr inbounds nuw i8, ptr %0, i64 264
  store i8 0, ptr %9, align 8, !tbaa !51
  store ptr getelementptr inbounds nuw inrange(-16, 272) (i8, ptr @_ZTVN5faiss17IndexIVFFlatDedupE, i64 16), ptr %0, align 8, !tbaa !62
  store ptr getelementptr inbounds nuw inrange(-16, 32) (i8, ptr @_ZTVN5faiss17IndexIVFFlatDedupE, i64 304), ptr %7, align 8, !tbaa !62
  %10 = getelementptr inbounds nuw i8, ptr %0, i64 272
  %11 = getelementptr inbounds nuw i8, ptr %0, i64 320
  store ptr %11, ptr %10, align 8, !tbaa !70
  %12 = getelementptr inbounds nuw i8, ptr %0, i64 280
  store i64 1, ptr %12, align 8, !tbaa !71
  %13 = getelementptr inbounds nuw i8, ptr %0, i64 288
  %14 = getelementptr inbounds nuw i8, ptr %0, i64 304
  tail call void @llvm.memset.p0.i64(ptr noundef nonnull align 8 dereferenceable(16) %13, i8 0, i64 16, i1 false)
  store float 1.000000e+00, ptr %14, align 8, !tbaa !75
  %15 = getelementptr inbounds nuw i8, ptr %0, i64 312
  tail call void @llvm.memset.p0.i64(ptr noundef nonnull align 8 dereferenceable(16) %15, i8 0, i64 16, i1 false)
  ret void
}